; Function Attrs: nounwind sspstrong uwtable
define internal void @ide_cd_eject_request_cb(ptr noundef captures(none) initializes((689, 690)) %opaque, i1 noundef zeroext %force) #0 {
entry:
  %events = getelementptr inbounds nuw i8, ptr %opaque, i64 689
  store i8 1, ptr %events, align 1
  br i1 %force, label %if.then, label %if.end

if.then:                                          ; preds = %entry
  %tray_locked = getelementptr inbounds nuw i8, ptr %opaque, i64 694
  store i8 0, ptr %tray_locked, align 2
  br label %if.end

if.end:                                           ; preds = %if.then, %entry
  %0 = load ptr, ptr %opaque, align 8
  %cmd.i = getelementptr inbounds nuw i8, ptr %0, i64 2129
  %1 = load i8, ptr %cmd.i, align 1
  %2 = and i8 %1, 2
  %tobool.not.i = icmp eq i8 %2, 0
  br i1 %tobool.not.i, label %if.then.i, label %ide_bus_set_irq.exit

if.then.i:                                        ; preds = %if.end
  %irq.i = getelementptr inbounds nuw i8, ptr %0, i64 2136
  %3 = load ptr, ptr %irq.i, align 8
  tail call void @qemu_set_irq(ptr noundef %3, i32 noundef 1) #17
  br label %ide_bus_set_irq.exit

ide_bus_set_irq.exit:                             ; preds = %if.end, %if.then.i
  ret void
}